target datalayout = "e-m:e-p270:32:32-p271:32:32-p272:64:64-i64:64-i128:128-f80:128-n8:16:32:64-S128"
target triple = "x86_64-pc-linux-gnu"

%struct.AVFilterContext = type { ptr, ptr, ptr, ptr, ptr, i32, ptr, ptr, i32, ptr, ptr, i32, i32, ptr, ptr, ptr, ptr, i32, ptr, i32, i32 }
%struct.ATempoContext = type { ptr, ptr, i32, i32, i32, i32, [2 x i64], i64, i32, i32, i32, i32, ptr, double, [2 x i64], [2 x %struct.AudioFragment], i64, i32, ptr, ptr, ptr, ptr, ptr, ptr, ptr, ptr, ptr, i64, i64 }
%struct.AudioFragment = type { [2 x i64], ptr, i32, ptr, ptr }

; Function Attrs: inlinehint nounwind uwtable
define internal ptr @yae_prev_frag(ptr noundef %0) #5 {
  %2 = alloca ptr, align 8
  store ptr %0, ptr %2, align 8, !tbaa !22
  %3 = load ptr, ptr %2, align 8, !tbaa !22
  %4 = getelementptr inbounds nuw %struct.ATempoContext, ptr %3, i32 0, i32 15
  %5 = load ptr, ptr %2, align 8, !tbaa !22
  %6 = getelementptr inbounds nuw %struct.ATempoContext, ptr %5, i32 0, i32 16
  %7 = load i64, ptr %6, align 8, !tbaa !70
  %8 = add i64 %7, 1
  %9 = urem i64 %8, 2
  %10 = getelementptr inbounds nuw [2 x %struct.AudioFragment], ptr %4, i64 0, i64 %9
  ret ptr %10
}

; Function Attrs: nounwind uwtable
define internal i32 @yae_update(ptr noundef %0) #1 {
  %2 = alloca ptr, align 8
  %3 = alloca ptr, align 8
  %4 = alloca ptr, align 8
  store ptr %0, ptr %2, align 8, !tbaa !4
  call void @llvm.lifetime.start.p0(i64 8, ptr %3) #11
  call void @llvm.lifetime.start.p0(i64 8, ptr %4) #11
  %5 = load ptr, ptr %2, align 8, !tbaa !4
  %6 = getelementptr inbounds nuw %struct.AVFilterContext, ptr %5, i32 0, i32 9
  %7 = load ptr, ptr %6, align 8, !tbaa !9
  store ptr %7, ptr %4, align 8, !tbaa !22
  %8 = load ptr, ptr %4, align 8, !tbaa !22
  %9 = call ptr @yae_prev_frag(ptr noundef %8)
  store ptr %9, ptr %3, align 8, !tbaa !75
  %10 = load ptr, ptr %3, align 8, !tbaa !75
  %11 = getelementptr inbounds nuw %struct.AudioFragment, ptr %10, i32 0, i32 0
  %12 = getelementptr inbounds [2 x i64], ptr %11, i64 0, i64 0
  %13 = load i64, ptr %12, align 8, !tbaa !77
  %14 = load ptr, ptr %4, align 8, !tbaa !22
  %15 = getelementptr inbounds nuw %struct.ATempoContext, ptr %14, i32 0, i32 11
  %16 = load i32, ptr %15, align 4, !tbaa !78
  %17 = sdiv i32 %16, 2
  %18 = sext i32 %17 to i64
  %19 = add nsw i64 %13, %18
  %20 = load ptr, ptr %4, align 8, !tbaa !22
  %21 = getelementptr inbounds nuw %struct.ATempoContext, ptr %20, i32 0, i32 14
  %22 = getelementptr inbounds [2 x i64], ptr %21, i64 0, i64 0
  store i64 %19, ptr %22, align 8, !tbaa !77
  %23 = load ptr, ptr %3, align 8, !tbaa !75
  %24 = getelementptr inbounds nuw %struct.AudioFragment, ptr %23, i32 0, i32 0
  %25 = getelementptr inbounds [2 x i64], ptr %24, i64 0, i64 1
  %26 = load i64, ptr %25, align 8, !tbaa !77
  %27 = load ptr, ptr %4, align 8, !tbaa !22
  %28 = getelementptr inbounds nuw %struct.ATempoContext, ptr %27, i32 0, i32 11
  %29 = load i32, ptr %28, align 4, !tbaa !78
  %30 = sdiv i32 %29, 2
  %31 = sext i32 %30 to i64
  %32 = add nsw i64 %26, %31
  %33 = load ptr, ptr %4, align 8, !tbaa !22
  %34 = getelementptr inbounds nuw %struct.ATempoContext, ptr %33, i32 0, i32 14
  %35 = getelementptr inbounds [2 x i64], ptr %34, i64 0, i64 1
  store i64 %32, ptr %35, align 8, !tbaa !77
  call void @llvm.lifetime.end.p0(i64 8, ptr %4) #11
  call void @llvm.lifetime.end.p0(i64 8, ptr %3) #11
  ret i32 0
}

; Function Attrs: nounwind uwtable
define internal i32 @process_command(ptr noundef %0, ptr noundef %1, ptr noundef %2, ptr noundef %3, i32 noundef %4, i32 noundef %5) #1 {
  %7 = alloca i32, align 4
  %8 = alloca ptr, align 8
  %9 = alloca ptr, align 8
  %10 = alloca ptr, align 8
  %11 = alloca ptr, align 8
  %12 = alloca i32, align 4
  %13 = alloca i32, align 4
  %14 = alloca i32, align 4
  %15 = alloca i32, align 4
  store ptr %0, ptr %8, align 8, !tbaa !4
  store ptr %1, ptr %9, align 8, !tbaa !32
  store ptr %2, ptr %10, align 8, !tbaa !32
  store ptr %3, ptr %11, align 8, !tbaa !32
  store i32 %4, ptr %12, align 4, !tbaa !33
  store i32 %5, ptr %13, align 4, !tbaa !33
  call void @llvm.lifetime.start.p0(i64 4, ptr %14) #11
  %16 = load ptr, ptr %8, align 8, !tbaa !4
  %17 = load ptr, ptr %9, align 8, !tbaa !32
  %18 = load ptr, ptr %10, align 8, !tbaa !32
  %19 = load ptr, ptr %11, align 8, !tbaa !32
  %20 = load i32, ptr %12, align 4, !tbaa !33
  %21 = load i32, ptr %13, align 4, !tbaa !33
  %22 = call i32 @ff_filter_process_command(ptr noundef %16, ptr noundef %17, ptr noundef %18, ptr noundef %19, i32 noundef %20, i32 noundef %21)
  store i32 %22, ptr %14, align 4, !tbaa !33
  %23 = load i32, ptr %14, align 4, !tbaa !33
  %24 = icmp slt i32 %23, 0
  br i1 %24, label %25, label %27

25:                                               ; preds = %6
  %26 = load i32, ptr %14, align 4, !tbaa !33
  store i32 %26, ptr %7, align 4
  store i32 1, ptr %15, align 4
  br label %30

27:                                               ; preds = %6
  %28 = load ptr, ptr %8, align 8, !tbaa !4
  %29 = call i32 @yae_update(ptr noundef %28)
  store i32 %29, ptr %7, align 4
  store i32 1, ptr %15, align 4
  br label %30

30:                                               ; preds = %27, %25
  call void @llvm.lifetime.end.p0(i64 4, ptr %14) #11
  %31 = load i32, ptr %7, align 4
  ret i32 %31
}