; Function Attrs: nounwind uwtable
define internal range(i32 -2147483648, 1) i32 @process_command(ptr noundef %0, ptr noundef %1, ptr noundef %2, ptr noundef %3, i32 noundef %4, i32 noundef %5) #2 {
  %7 = tail call i32 @ff_filter_process_command(ptr noundef %0, ptr noundef %1, ptr noundef %2, ptr noundef %3, i32 noundef %4, i32 noundef %5) #12
  %8 = icmp slt i32 %7, 0
  br i1 %8, label %28, label %9

9:                                                ; preds = %6
  %10 = getelementptr i8, ptr %0, i64 72
  %.val = load ptr, ptr %10, align 8, !tbaa !4
  %11 = getelementptr inbounds nuw i8, ptr %.val, i64 104
  %12 = getelementptr inbounds nuw i8, ptr %.val, i64 200
  %13 = load i64, ptr %12, align 8, !tbaa !28
  %14 = and i64 %13, 1
  %15 = xor i64 %14, 1
  %16 = getelementptr inbounds nuw [2 x %struct.AudioFragment], ptr %11, i64 0, i64 %15
  %17 = load i64, ptr %16, align 8, !tbaa !29
  %18 = getelementptr inbounds nuw i8, ptr %.val, i64 68
  %19 = load i32, ptr %18, align 4, !tbaa !30
  %20 = sdiv i32 %19, 2
  %21 = sext i32 %20 to i64
  %22 = add nsw i64 %17, %21
  %23 = getelementptr inbounds nuw i8, ptr %.val, i64 88
  store i64 %22, ptr %23, align 8, !tbaa !29
  %24 = getelementptr inbounds nuw i8, ptr %16, i64 8
  %25 = load i64, ptr %24, align 8, !tbaa !29
  %26 = add nsw i64 %25, %21
  %27 = getelementptr inbounds nuw i8, ptr %.val, i64 96
  store i64 %26, ptr %27, align 8, !tbaa !29
  br label %28

28:                                               ; preds = %6, %9
  %.0 = phi i32 [ 0, %9 ], [ %7, %6 ]
  ret i32 %.0
}